; Function Attrs: mustprogress uwtable
define dso_local void @_ZN3tev10ThreadPool15shutdownThreadsEm(ptr noundef nonnull align 8 dereferenceable(256) %0, i64 noundef %1) local_unnamed_addr #1 align 2 personality ptr @__gxx_personality_v0 {
  %3 = getelementptr inbounds i8, ptr %0, i64 8
  %4 = load i64, ptr %3, align 8
  %.sroa.speculated = tail call i64 @llvm.umin.i64(i64 %4, i64 %1)
  %5 = getelementptr inbounds i8, ptr %0, i64 72
  tail call void @_ZNSt3__15mutex4lockEv(ptr noundef nonnull align 8 dereferenceable(40) %5)
  %6 = load i64, ptr %3, align 8
  %7 = sub i64 %6, %.sroa.speculated
  store i64 %7, ptr %3, align 8
  tail call void @_ZNSt3__15mutex6unlockEv(ptr noundef nonnull align 8 dereferenceable(40) %5) #13
  %8 = getelementptr inbounds i8, ptr %0, i64 112
  tail call void @_ZNSt3__118condition_variable10notify_allEv(ptr noundef nonnull align 8 dereferenceable(48) %8) #13
  %.not = icmp eq i64 %.sroa.speculated, 0
  br i1 %.not, label %._crit_edge, label %.lr.ph

.lr.ph:                                           ; preds = %2
  %9 = getelementptr inbounds i8, ptr %0, i64 24
  %.pre = load ptr, ptr %9, align 8
  br label %10

10:                                               ; preds = %.lr.ph, %10
  %11 = phi ptr [ %.pre, %.lr.ph ], [ %14, %10 ]
  %.05 = phi i32 [ 0, %.lr.ph ], [ %15, %10 ]
  %12 = getelementptr inbounds i8, ptr %11, i64 -8
  tail call void @_ZNSt3__16thread4joinEv(ptr noundef nonnull align 8 dereferenceable(8) %12)
  %13 = load ptr, ptr %9, align 8
  %14 = getelementptr inbounds i8, ptr %13, i64 -8
  tail call void @_ZNSt3__16threadD1Ev(ptr noundef nonnull align 8 dereferenceable(8) %14) #13
  store ptr %14, ptr %9, align 8
  %15 = add i32 %.05, 1
  %16 = zext i32 %15 to i64
  %17 = icmp ugt i64 %.sroa.speculated, %16
  br i1 %17, label %10, label %._crit_edge, !llvm.loop !9

._crit_edge:                                      ; preds = %10, %2
  ret void
}